; Function Attrs: mustprogress nounwind uwtable
define dso_local void @_ZN4llvm19DecodeVPERMIL2PMaskEjjjNS_8ArrayRefImEERKNS_5APIntERNS_15SmallVectorImplIiEE(i32 noundef %0, i32 noundef %1, i32 noundef %2, ptr readonly captures(none) %3, i64 %4, ptr noundef nonnull readonly align 8 captures(none) dereferenceable(12) %5, ptr noundef nonnull align 8 dereferenceable(16) %6) local_unnamed_addr #0 {
  %8 = and i64 %4, 4294967295
  %.not38 = icmp eq i64 %8, 0
  br i1 %.not38, label %._crit_edge, label %.lr.ph

.lr.ph:                                           ; preds = %7
  %9 = mul i32 %1, %0
  %10 = lshr i32 %9, 7
  %11 = udiv i32 %0, %10
  %12 = getelementptr inbounds nuw i8, ptr %5, i64 8
  %13 = getelementptr inbounds nuw i8, ptr %6, i64 16
  %14 = and i32 %2, 2
  %.not = icmp eq i32 %14, 0
  %15 = sub i32 0, %11
  %16 = icmp eq i32 %1, 64
  %wide.trip.count = and i64 %4, 4294967295
  br label %17

17:                                               ; preds = %.lr.ph, %_ZN4llvm23SmallVectorTemplateBaseIiLb1EE9push_backEi.exit
  %indvars.iv = phi i64 [ 0, %.lr.ph ], [ %indvars.iv.next, %_ZN4llvm23SmallVectorTemplateBaseIiLb1EE9push_backEi.exit ]
  %18 = trunc nuw i64 %indvars.iv to i32
  %19 = and i64 %indvars.iv, 63
  %20 = shl nuw i64 1, %19
  %21 = load i32, ptr %12, align 8
  %22 = icmp ult i32 %21, 65
  %23 = load ptr, ptr %5, align 8
  %24 = lshr i64 %indvars.iv, 6
  %25 = and i64 %24, 67108863
  %26 = getelementptr inbounds nuw i64, ptr %23, i64 %25
  %.in.i.i = select i1 %22, ptr %5, ptr %26
  %27 = load i64, ptr %.in.i.i, align 8
  %28 = and i64 %27, %20
  %.not36 = icmp eq i64 %28, 0
  br i1 %.not36, label %33, label %29

29:                                               ; preds = %17
  %30 = tail call noundef i64 @_ZNK4llvm15SmallVectorBaseIjE4sizeEv(ptr noundef nonnull align 8 dereferenceable(16) %6) #4
  %31 = add i64 %30, 1
  %32 = tail call noundef i64 @_ZNK4llvm15SmallVectorBaseIjE8capacityEv(ptr noundef nonnull align 8 dereferenceable(16) %6) #4
  %.not.i.i.i = icmp ugt i64 %31, %32
  br i1 %.not.i.i.i, label %_ZN4llvm23SmallVectorTemplateBaseIiLb1EE9push_backEi.exit.sink.split, label %_ZN4llvm23SmallVectorTemplateBaseIiLb1EE9push_backEi.exit

33:                                               ; preds = %17
  %34 = getelementptr inbounds nuw i64, ptr %3, i64 %indvars.iv
  %35 = load i64, ptr %34, align 8
  %.pre = trunc i64 %35 to i32
  br i1 %.not, label %._crit_edge40, label %36

36:                                               ; preds = %33
  %37 = lshr i32 %.pre, 3
  %38 = xor i32 %37, %2
  %39 = and i32 %38, 1
  %.not30 = icmp eq i32 %39, 0
  br i1 %.not30, label %._crit_edge40, label %40

40:                                               ; preds = %36
  %41 = tail call noundef i64 @_ZNK4llvm15SmallVectorBaseIjE4sizeEv(ptr noundef nonnull align 8 dereferenceable(16) %6) #4
  %42 = add i64 %41, 1
  %43 = tail call noundef i64 @_ZNK4llvm15SmallVectorBaseIjE8capacityEv(ptr noundef nonnull align 8 dereferenceable(16) %6) #4
  %.not.i.i.i32 = icmp ugt i64 %42, %43
  br i1 %.not.i.i.i32, label %_ZN4llvm23SmallVectorTemplateBaseIiLb1EE9push_backEi.exit.sink.split, label %_ZN4llvm23SmallVectorTemplateBaseIiLb1EE9push_backEi.exit

._crit_edge40:                                    ; preds = %33, %36
  %44 = and i32 %18, %15
  %45 = lshr i32 %.pre, 1
  %46 = and i32 %45, 1
  %47 = and i32 %.pre, 3
  %.pn = select i1 %16, i32 %46, i32 %47
  %48 = and i64 %35, 4
  %.not31 = icmp eq i64 %48, 0
  %49 = select i1 %.not31, i32 0, i32 %0
  %.029 = add i32 %49, %44
  %50 = add i32 %.029, %.pn
  %51 = tail call noundef i64 @_ZNK4llvm15SmallVectorBaseIjE4sizeEv(ptr noundef nonnull align 8 dereferenceable(16) %6) #4
  %52 = add i64 %51, 1
  %53 = tail call noundef i64 @_ZNK4llvm15SmallVectorBaseIjE8capacityEv(ptr noundef nonnull align 8 dereferenceable(16) %6) #4
  %.not.i.i.i34 = icmp ugt i64 %52, %53
  br i1 %.not.i.i.i34, label %_ZN4llvm23SmallVectorTemplateBaseIiLb1EE9push_backEi.exit.sink.split, label %_ZN4llvm23SmallVectorTemplateBaseIiLb1EE9push_backEi.exit

_ZN4llvm23SmallVectorTemplateBaseIiLb1EE9push_backEi.exit.sink.split: ; preds = %._crit_edge40, %40, %29
  %.sink45 = phi i64 [ %31, %29 ], [ %42, %40 ], [ %52, %._crit_edge40 ]
  %.sink.ph = phi i32 [ -1, %29 ], [ -2, %40 ], [ %50, %._crit_edge40 ]
  tail call void @_ZN4llvm15SmallVectorBaseIjE8grow_podEPvmm(ptr noundef nonnull align 8 dereferenceable(16) %6, ptr noundef nonnull %13, i64 noundef %.sink45, i64 noundef 4) #4
  br label %_ZN4llvm23SmallVectorTemplateBaseIiLb1EE9push_backEi.exit

_ZN4llvm23SmallVectorTemplateBaseIiLb1EE9push_backEi.exit: ; preds = %_ZN4llvm23SmallVectorTemplateBaseIiLb1EE9push_backEi.exit.sink.split, %._crit_edge40, %40, %29
  %.sink = phi i32 [ -1, %29 ], [ -2, %40 ], [ %50, %._crit_edge40 ], [ %.sink.ph, %_ZN4llvm23SmallVectorTemplateBaseIiLb1EE9push_backEi.exit.sink.split ]
  %54 = load ptr, ptr %6, align 8
  %55 = tail call noundef i64 @_ZNK4llvm15SmallVectorBaseIjE4sizeEv(ptr noundef nonnull align 8 dereferenceable(16) %6) #4
  %56 = getelementptr inbounds i32, ptr %54, i64 %55
  store i32 %.sink, ptr %56, align 1
  %57 = tail call noundef i64 @_ZNK4llvm15SmallVectorBaseIjE4sizeEv(ptr noundef nonnull align 8 dereferenceable(16) %6) #4
  %58 = add i64 %57, 1
  tail call void @_ZN4llvm15SmallVectorBaseIjE8set_sizeEm(ptr noundef nonnull align 8 dereferenceable(16) %6, i64 noundef %58) #4
  %indvars.iv.next = add nuw nsw i64 %indvars.iv, 1
  %exitcond.not = icmp eq i64 %indvars.iv.next, %wide.trip.count
  br i1 %exitcond.not, label %._crit_edge, label %17, !llvm.loop !61

._crit_edge:                                      ; preds = %_ZN4llvm23SmallVectorTemplateBaseIiLb1EE9push_backEi.exit, %7
  ret void
}